; Function Attrs: mustprogress nounwind uwtable
define internal fastcc void @_ZNK12_GLOBAL__N_17PGOEdge10infoStringB5cxx11Ev(ptr dead_on_unwind noalias writable align 8 %0, ptr noundef nonnull align 8 dereferenceable(27) %1) unnamed_addr #0 align 2 {
  %3 = alloca %"class.llvm::Twine", align 8
  %4 = alloca %"class.llvm::Twine", align 8
  %5 = alloca %"class.llvm::Twine", align 8
  %6 = alloca %"class.llvm::Twine", align 8
  %7 = getelementptr inbounds nuw i8, ptr %1, i64 25
  %8 = load i8, ptr %7, align 1
  %9 = trunc i8 %8 to i1
  %.str.139..str.178 = select i1 %9, ptr @.str.139, ptr @.str.178
  %10 = load i8, ptr %.str.139..str.178, align 1
  %.not.i = icmp eq i8 %10, 0
  %11 = getelementptr inbounds nuw i8, ptr %1, i64 24
  %12 = load i8, ptr %11, align 8
  %13 = trunc i8 %12 to i1
  %14 = select i1 %13, ptr @.str.178, ptr @.str.263
  %15 = load i8, ptr %14, align 1
  %.not.i1 = icmp eq i8 %15, 0
  br i1 %.not.i, label %_ZN4llvm5TwineC2EPKc.exit, label %_ZN4llvm5TwineC2EPKc.exit.thread

_ZN4llvm5TwineC2EPKc.exit:                        ; preds = %2
  %spec.select = select i1 %.not.i1, i8 1, i8 3
  br label %_ZN4llvmplERKNS_5TwineES2_.exit.sink.split

_ZN4llvm5TwineC2EPKc.exit.thread:                 ; preds = %2
  store ptr %.str.139..str.178, ptr %6, align 8
  br i1 %.not.i1, label %_ZN4llvmplERKNS_5TwineES2_.exit, label %16

16:                                               ; preds = %_ZN4llvm5TwineC2EPKc.exit.thread
  %17 = getelementptr inbounds nuw i8, ptr %6, i64 16
  br label %_ZN4llvmplERKNS_5TwineES2_.exit.sink.split

_ZN4llvmplERKNS_5TwineES2_.exit.sink.split:       ; preds = %16, %_ZN4llvm5TwineC2EPKc.exit
  %.sink123 = phi ptr [ %6, %_ZN4llvm5TwineC2EPKc.exit ], [ %17, %16 ]
  %spec.select.sink.ph = phi i8 [ %spec.select, %_ZN4llvm5TwineC2EPKc.exit ], [ 3, %16 ]
  %.sink.ph = phi i8 [ 1, %_ZN4llvm5TwineC2EPKc.exit ], [ 3, %16 ]
  %.sroa.05.0.copyload.i.i7.ph = phi ptr [ %14, %_ZN4llvm5TwineC2EPKc.exit ], [ %.str.139..str.178, %16 ]
  store ptr %14, ptr %.sink123, align 8
  br label %_ZN4llvmplERKNS_5TwineES2_.exit

_ZN4llvmplERKNS_5TwineES2_.exit:                  ; preds = %_ZN4llvmplERKNS_5TwineES2_.exit.sink.split, %_ZN4llvm5TwineC2EPKc.exit.thread
  %spec.select.sink = phi i8 [ 3, %_ZN4llvm5TwineC2EPKc.exit.thread ], [ %spec.select.sink.ph, %_ZN4llvmplERKNS_5TwineES2_.exit.sink.split ]
  %.sink = phi i8 [ 1, %_ZN4llvm5TwineC2EPKc.exit.thread ], [ %.sink.ph, %_ZN4llvmplERKNS_5TwineES2_.exit.sink.split ]
  %.sroa.05.0.copyload.i.i7 = phi ptr [ %.str.139..str.178, %_ZN4llvm5TwineC2EPKc.exit.thread ], [ %.sroa.05.0.copyload.i.i7.ph, %_ZN4llvmplERKNS_5TwineES2_.exit.sink.split ]
  %18 = phi i1 [ true, %_ZN4llvm5TwineC2EPKc.exit.thread ], [ %.not.i, %_ZN4llvmplERKNS_5TwineES2_.exit.sink.split ]
  %.sroa.472.0..sroa_idx = getelementptr inbounds i8, ptr %6, i64 32
  store i8 %spec.select.sink, ptr %.sroa.472.0..sroa_idx, align 8
  %.sroa.773.0..sroa_idx = getelementptr inbounds i8, ptr %6, i64 33
  store i8 %.sink, ptr %.sroa.773.0..sroa_idx, align 1
  %19 = getelementptr inbounds nuw i8, ptr %1, i64 26
  %20 = load i8, ptr %19, align 2
  %21 = trunc i8 %20 to i1
  %22 = select i1 %21, ptr @.str.264, ptr @.str.178
  %23 = load i8, ptr %22, align 1
  %.not.i4 = icmp eq i8 %23, 0
  %storemerge.i5 = select i1 %.not.i4, i8 1, i8 3
  %cond = icmp eq i8 %spec.select.sink, 1
  br i1 %cond, label %24, label %25

24:                                               ; preds = %_ZN4llvmplERKNS_5TwineES2_.exit
  store ptr %22, ptr %5, align 8
  %.sroa.467.0..sroa_idx = getelementptr inbounds i8, ptr %5, i64 32
  store i8 %storemerge.i5, ptr %.sroa.467.0..sroa_idx, align 8
  %.sroa.668.0..sroa_idx = getelementptr inbounds i8, ptr %5, i64 33
  store i8 1, ptr %.sroa.668.0..sroa_idx, align 1
  br label %_ZN4llvmplERKNS_5TwineES2_.exit21

25:                                               ; preds = %_ZN4llvmplERKNS_5TwineES2_.exit
  br i1 %.not.i4, label %26, label %27

26:                                               ; preds = %25
  call void @llvm.memcpy.p0.p0.i64(ptr noundef nonnull align 8 dereferenceable(40) %5, ptr noundef nonnull align 8 dereferenceable(40) %6, i64 40, i1 false)
  %.phi.trans.insert = getelementptr inbounds nuw i8, ptr %5, i64 32
  %.pre = load i8, ptr %.phi.trans.insert, align 8, !noalias !567
  br label %_ZN4llvmplERKNS_5TwineES2_.exit21

27:                                               ; preds = %25
  %.014.i.i10 = select i1 %18, i8 %spec.select.sink, i8 2
  %.sroa.05.0.i.i11 = select i1 %18, ptr %.sroa.05.0.copyload.i.i7, ptr %6
  store ptr %.sroa.05.0.i.i11, ptr %5, align 8, !alias.scope !572
  %28 = getelementptr inbounds nuw i8, ptr %5, i64 16
  store ptr %22, ptr %28, align 8, !alias.scope !572
  %29 = getelementptr inbounds nuw i8, ptr %5, i64 32
  store i8 %.014.i.i10, ptr %29, align 8, !alias.scope !572
  %30 = getelementptr inbounds nuw i8, ptr %5, i64 33
  store i8 %storemerge.i5, ptr %30, align 1, !alias.scope !572
  br label %_ZN4llvmplERKNS_5TwineES2_.exit21

_ZN4llvmplERKNS_5TwineES2_.exit21:                ; preds = %24, %26, %27
  %31 = phi i8 [ %storemerge.i5, %24 ], [ %.pre, %26 ], [ %.014.i.i10, %27 ]
  call void @llvm.experimental.noalias.scope.decl(metadata !577)
  call void @llvm.experimental.noalias.scope.decl(metadata !578)
  switch i8 %31, label %_ZN4llvmplERKNS_5TwineES2_.exit37 [
    i8 0, label %_ZN4llvmplERKNS_5TwineES2_.exit37.thread96
    i8 1, label %38
  ]

_ZN4llvmplERKNS_5TwineES2_.exit37.thread96:       ; preds = %_ZN4llvmplERKNS_5TwineES2_.exit21
  %32 = getelementptr inbounds nuw i8, ptr %4, i64 32
  store i8 0, ptr %32, align 8, !alias.scope !567
  %33 = getelementptr inbounds nuw i8, ptr %4, i64 33
  store i8 1, ptr %33, align 1, !alias.scope !567
  br label %_ZN4llvmplERKNS_5TwineES2_.exit52

_ZN4llvmplERKNS_5TwineES2_.exit37:                ; preds = %_ZN4llvmplERKNS_5TwineES2_.exit21
  %34 = getelementptr inbounds nuw i8, ptr %5, i64 33
  %35 = load i8, ptr %34, align 1, !noalias !567
  %36 = icmp eq i8 %35, 1
  %.sroa.05.0.copyload.i.i23 = load ptr, ptr %5, align 8, !noalias !567
  %.sroa.36.0..sroa_idx.i.i24 = getelementptr inbounds i8, ptr %5, i64 8
  %.sroa.36.0.copyload.i.i25 = load i64, ptr %.sroa.36.0..sroa_idx.i.i24, align 8, !noalias !567
  %.014.i.i26 = select i1 %36, i8 %31, i8 2
  %.sroa.05.0.i.i27 = select i1 %36, ptr %.sroa.05.0.copyload.i.i23, ptr %5
  %.sroa.36.0.i.i28 = select i1 %36, i64 %.sroa.36.0.copyload.i.i25, i64 undef
  store ptr %.sroa.05.0.i.i27, ptr %4, align 8, !alias.scope !567
  %.sroa.23.0..sroa_idx.i.i.i35 = getelementptr inbounds i8, ptr %4, i64 8
  store i64 %.sroa.36.0.i.i28, ptr %.sroa.23.0..sroa_idx.i.i.i35, align 8, !alias.scope !567
  %37 = getelementptr inbounds nuw i8, ptr %4, i64 16
  br label %38

38:                                               ; preds = %_ZN4llvmplERKNS_5TwineES2_.exit21, %_ZN4llvmplERKNS_5TwineES2_.exit37
  %.sink118 = phi ptr [ %37, %_ZN4llvmplERKNS_5TwineES2_.exit37 ], [ %4, %_ZN4llvmplERKNS_5TwineES2_.exit21 ]
  %.014.i.i26.sink = phi i8 [ %.014.i.i26, %_ZN4llvmplERKNS_5TwineES2_.exit37 ], [ 3, %_ZN4llvmplERKNS_5TwineES2_.exit21 ]
  %.sink115 = phi i8 [ 3, %_ZN4llvmplERKNS_5TwineES2_.exit37 ], [ %31, %_ZN4llvmplERKNS_5TwineES2_.exit21 ]
  %39 = phi ptr [ %4, %_ZN4llvmplERKNS_5TwineES2_.exit37 ], [ @.str.265, %_ZN4llvmplERKNS_5TwineES2_.exit21 ]
  %40 = phi i8 [ 2, %_ZN4llvmplERKNS_5TwineES2_.exit37 ], [ 3, %_ZN4llvmplERKNS_5TwineES2_.exit21 ]
  store ptr @.str.265, ptr %.sink118, align 8
  %41 = getelementptr inbounds i8, ptr %4, i64 32
  store i8 %.014.i.i26.sink, ptr %41, align 8
  %42 = getelementptr inbounds i8, ptr %4, i64 33
  store i8 %.sink115, ptr %42, align 1
  %43 = getelementptr inbounds nuw i8, ptr %1, i64 16
  store ptr %39, ptr %3, align 8, !alias.scope !579
  %44 = getelementptr inbounds nuw i8, ptr %3, i64 16
  store ptr %43, ptr %44, align 8, !alias.scope !579
  br label %_ZN4llvmplERKNS_5TwineES2_.exit52

_ZN4llvmplERKNS_5TwineES2_.exit52:                ; preds = %_ZN4llvmplERKNS_5TwineES2_.exit37.thread96, %38
  %.sink121 = phi i8 [ 0, %_ZN4llvmplERKNS_5TwineES2_.exit37.thread96 ], [ %40, %38 ]
  %.sink119 = phi i8 [ 1, %_ZN4llvmplERKNS_5TwineES2_.exit37.thread96 ], [ 11, %38 ]
  %45 = getelementptr inbounds nuw i8, ptr %3, i64 32
  store i8 %.sink121, ptr %45, align 8, !alias.scope !579
  %46 = getelementptr inbounds nuw i8, ptr %3, i64 33
  store i8 %.sink119, ptr %46, align 1, !alias.scope !579
  call void @_ZNK4llvm5Twine3strB5cxx11Ev(ptr dead_on_unwind writable sret(%"class.std::__cxx11::basic_string") align 8 %0, ptr noundef nonnull align 8 dereferenceable(34) %3) #22
  ret void
}